; Function Attrs: mustprogress uwtable
define void @_ZN9grpc_core8channelz12ChannelTrace13AddTraceEventENS1_8SeverityERK10grpc_slice(ptr noundef nonnull align 8 dereferenceable(64) %0, i32 noundef %1, ptr noundef nonnull align 8 dereferenceable(32) %2) local_unnamed_addr #9 align 2 personality ptr @__gxx_personality_v0 {
  %4 = load i64, ptr %0, align 8, !tbaa !99
  %5 = icmp eq i64 %4, 0
  br i1 %5, label %6, label %15

6:                                                ; preds = %3
  %7 = load ptr, ptr %2, align 8, !tbaa !28
  %8 = icmp ugt ptr %7, inttoptr (i64 1 to ptr)
  br i1 %8, label %9, label %_ZN9grpc_core11CSliceUnrefERK10grpc_sliceNS_13DebugLocationE.exit

9:                                                ; preds = %6
  %10 = atomicrmw sub ptr %7, i64 1 acq_rel, align 8
  %11 = icmp eq i64 %10, 1
  br i1 %11, label %12, label %_ZN9grpc_core11CSliceUnrefERK10grpc_sliceNS_13DebugLocationE.exit

12:                                               ; preds = %9
  %13 = getelementptr inbounds nuw i8, ptr %7, i64 8
  %14 = load ptr, ptr %13, align 8, !tbaa !29
  tail call void %14(ptr noundef nonnull align 8 dereferenceable(16) %7)
  br label %_ZN9grpc_core11CSliceUnrefERK10grpc_sliceNS_13DebugLocationE.exit

15:                                               ; preds = %3
  %16 = tail call noalias noundef nonnull dereferenceable(80) ptr @_Znwm(i64 noundef 80) #27
  invoke void @_ZN9grpc_core8channelz12ChannelTrace10TraceEventC1ENS1_8SeverityERK10grpc_slice(ptr noundef nonnull align 8 dereferenceable(80) %16, i32 noundef %1, ptr noundef nonnull align 8 dereferenceable(32) %2)
          to label %17 unwind label %18

17:                                               ; preds = %15
  tail call void @_ZN9grpc_core8channelz12ChannelTrace19AddTraceEventHelperEPNS1_10TraceEventE(ptr noundef nonnull align 8 dereferenceable(64) %0, ptr noundef nonnull %16)
  br label %_ZN9grpc_core11CSliceUnrefERK10grpc_sliceNS_13DebugLocationE.exit

_ZN9grpc_core11CSliceUnrefERK10grpc_sliceNS_13DebugLocationE.exit: ; preds = %12, %9, %6, %17
  ret void

18:                                               ; preds = %15
  %19 = landingpad { ptr, i32 }
          cleanup
  tail call void @_ZdlPvm(ptr noundef nonnull %16, i64 noundef 80) #26
  resume { ptr, i32 } %19
}